ccopy_reg
_reconstructor
p1
(cProbability
P
p2
c__builtin__
dict
p3
(dp4
c__builtin__
frozenset
p5
((lp6
g5
((lp7
(I6
I5
tp8
atRp9
ag5
((lp10
(I5
I1
tp11
a(I4
I1
tp12
a(I3
I3
tp13
atRp14
ag5
((lp15
(I6
I3
tp16
a(I3
I1
tp17
a(I1
I1
tp18
atRp19
ag5
((lp20
(I3
I2
tp21
a(I5
I3
tp22
atRp23
ag5
((lp24
(I1
I2
tp25
a(I3
I1
tp26
a(I4
I1
tp27
a(I2
I1
tp28
atRp29
ag5
((lp30
(I6
I1
tp31
a(I2
I3
tp32
a(I1
I1
tp33
atRp34
ag5
((lp35
(I5
I1
tp36
a(I6
I1
tp37
a(I4
I1
tp38
a(I1
I1
tp39
a(I2
I1
tp40
atRp41
ag5
((lp42
(I1
I2
tp43
a(I4
I3
tp44
atRp45
ag5
((lp46
(I4
I2
tp47
a(I6
I1
tp48
a(I3
I1
tp49
a(I2
I1
tp50
atRp51
ag5
((lp52
(I1
I2
tp53
a(I3
I1
tp54
a(I5
I2
tp55
atRp56
ag5
((lp57
(I1
I2
tp58
a(I4
I1
tp59
a(I2
I2
tp60
atRp61
ag5
((lp62
(I1
I2
tp63
a(I2
I3
tp64
atRp65
ag5
((lp66
(I1
I2
tp67
a(I6
I1
tp68
a(I2
I2
tp69
atRp70
ag5
((lp71
(I3
I2
tp72
a(I5
I2
tp73
a(I2
I1
tp74
atRp75
ag5
((lp76
(I6
I2
tp77
a(I5
I2
tp78
a(I2
I1
tp79
atRp80
ag5
((lp81
(I5
I4
tp82
a(I2
I1
tp83
atRp84
ag5
((lp85
(I5
I1
tp86
a(I4
I1
tp87
a(I1
I1
tp88
a(I2
I2
tp89
atRp90
ag5
((lp91
(I6
I2
tp92
a(I1
I1
tp93
a(I2
I2
tp94
atRp95
ag5
((lp96
(I6
I1
tp97
a(I4
I1
tp98
a(I3
I3
tp99
atRp100
ag5
((lp101
(I5
I1
tp102
a(I6
I2
tp103
a(I4
I1
tp104
a(I1
I1
tp105
atRp106
ag5
((lp107
(I3
I2
tp108
a(I2
I3
tp109
atRp110
ag5
((lp111
(I4
I2
tp112
a(I3
I1
tp113
a(I2
I2
tp114
atRp115
ag5
((lp116
(I4
I2
tp117
a(I6
I2
tp118
a(I1
I1
tp119
atRp120
ag5
((lp121
(I4
I1
tp122
a(I1
I1
tp123
a(I3
I3
tp124
atRp125
ag5
((lp126
(I4
I3
tp127
a(I1
I1
tp128
a(I2
I1
tp129
atRp130
ag5
((lp131
(I6
I1
tp132
a(I1
I1
tp133
a(I3
I3
tp134
atRp135
ag5
((lp136
(I5
I1
tp137
a(I6
I1
tp138
a(I4
I1
tp139
a(I2
I2
tp140
atRp141
ag5
((lp142
(I5
I1
tp143
a(I1
I1
tp144
a(I4
I3
tp145
atRp146
ag5
((lp147
(I6
I3
tp148
a(I5
I1
tp149
a(I2
I1
tp150
atRp151
ag5
((lp152
(I1
I2
tp153
a(I5
I1
tp154
a(I2
I2
tp155
atRp156
ag5
((lp157
(I1
I2
tp158
a(I5
I1
tp159
a(I3
I2
tp160
atRp161
ag5
((lp162
(I1
I2
tp163
a(I5
I1
tp164
a(I6
I1
tp165
a(I3
I1
tp166
atRp167
ag5
((lp168
(I3
I1
tp169
a(I2
I3
tp170
a(I1
I1
tp171
atRp172
ag5
((lp173
(I3
I1
tp174
a(I1
I4
tp175
atRp176
ag5
((lp177
(I3
I2
tp178
a(I6
I2
tp179
a(I2
I1
tp180
atRp181
ag5
((lp182
(I4
I2
tp183
a(I3
I1
tp184
a(I2
I1
tp185
a(I5
I1
tp186
atRp187
ag5
((lp188
(I1
I2
tp189
a(I5
I3
tp190
atRp191
ag5
((lp192
(I6
I2
tp193
a(I3
I1
tp194
a(I4
I1
tp195
a(I2
I1
tp196
atRp197
ag5
((lp198
(I6
I3
tp199
a(I5
I1
tp200
a(I4
I1
tp201
atRp202
ag5
((lp203
(I3
I1
tp204
a(I2
I1
tp205
a(I5
I3
tp206
atRp207
ag5
((lp208
(I6
I1
tp209
a(I1
I3
tp210
a(I3
I1
tp211
atRp212
ag5
((lp213
(I4
I2
tp214
a(I1
I1
tp215
a(I2
I1
tp216
a(I5
I1
tp217
atRp218
ag5
((lp219
(I5
I3
tp220
a(I2
I2
tp221
atRp222
ag5
((lp223
(I3
I1
tp224
a(I4
I3
tp225
a(I2
I1
tp226
atRp227
ag5
((lp228
(I5
I4
tp229
a(I4
I1
tp230
atRp231
ag5
((lp232
(I5
I2
tp233
a(I4
I1
tp234
a(I2
I2
tp235
atRp236
ag5
((lp237
(I5
I2
tp238
a(I6
I1
tp239
a(I4
I1
tp240
a(I1
I1
tp241
atRp242
ag5
((lp243
(I4
I2
tp244
a(I6
I1
tp245
a(I1
I1
tp246
a(I2
I1
tp247
atRp248
ag5
((lp249
(I6
I2
tp250
a(I3
I1
tp251
a(I1
I1
tp252
a(I2
I1
tp253
atRp254
ag5
((lp255
(I4
I2
tp256
a(I6
I2
tp257
a(I2
I1
tp258
atRp259
ag5
((lp260
(I4
I1
tp261
a(I2
I3
tp262
a(I1
I1
tp263
atRp264
ag5
((lp265
(I5
I1
tp266
a(I6
I1
tp267
a(I3
I1
tp268
a(I4
I1
tp269
a(I2
I1
tp270
atRp271
ag5
((lp272
(I5
I1
tp273
a(I2
I4
tp274
atRp275
ag5
((lp276
(I3
I2
tp277
a(I4
I3
tp278
atRp279
ag5
((lp280
(I3
I1
tp281
a(I1
I1
tp282
a(I5
I3
tp283
atRp284
ag5
((lp285
(I1
I2
tp286
a(I4
I2
tp287
a(I3
I1
tp288
atRp289
ag5
((lp290
(I6
I1
tp291
a(I3
I1
tp292
a(I5
I2
tp293
a(I2
I1
tp294
atRp295
ag5
((lp296
(I6
I3
tp297
a(I2
I2
tp298
atRp299
ag5
((lp300
(I4
I2
tp301
a(I3
I2
tp302
a(I6
I1
tp303
atRp304
ag5
((lp305
(I6
I1
tp306
a(I3
I1
tp307
a(I1
I1
tp308
a(I2
I2
tp309
atRp310
ag5
((lp311
(I3
I2
tp312
a(I1
I1
tp313
a(I2
I2
tp314
atRp315
ag5
((lp316
(I6
I2
tp317
a(I3
I1
tp318
a(I4
I1
tp319
a(I1
I1
tp320
atRp321
ag5
((lp322
(I6
I2
tp323
a(I1
I3
tp324
atRp325
ag5
((lp326
(I5
I1
tp327
a(I6
I1
tp328
a(I1
I1
tp329
a(I2
I2
tp330
atRp331
ag5
((lp332
(I1
I3
tp333
a(I2
I2
tp334
atRp335
ag5
((lp336
(I4
I2
tp337
a(I2
I3
tp338
atRp339
ag5
((lp340
(I2
I5
tp341
atRp342
ag5
((lp343
(I5
I1
tp344
a(I6
I1
tp345
a(I3
I3
tp346
atRp347
ag5
((lp348
(I5
I1
tp349
a(I6
I1
tp350
a(I3
I1
tp351
a(I4
I1
tp352
a(I1
I1
tp353
atRp354
ag5
((lp355
(I4
I1
tp356
a(I1
I4
tp357
atRp358
ag5
((lp359
(I6
I1
tp360
a(I3
I1
tp361
a(I4
I1
tp362
a(I2
I2
tp363
atRp364
ag5
((lp365
(I6
I3
tp366
a(I4
I1
tp367
a(I2
I1
tp368
atRp369
ag5
((lp370
(I1
I1
tp371
a(I2
I4
tp372
atRp373
ag5
((lp374
(I4
I2
tp375
a(I1
I1
tp376
a(I2
I2
tp377
atRp378
ag5
((lp379
(I4
I2
tp380
a(I1
I3
tp381
atRp382
ag5
((lp383
(I3
I3
tp384
a(I2
I2
tp385
atRp386
ag5
((lp387
(I5
I2
tp388
a(I6
I1
tp389
a(I4
I1
tp390
a(I2
I1
tp391
atRp392
ag5
((lp393
(I3
I1
tp394
a(I1
I1
tp395
a(I4
I3
tp396
atRp397
ag5
((lp398
(I1
I2
tp399
a(I5
I2
tp400
a(I4
I1
tp401
atRp402
ag5
((lp403
(I3
I2
tp404
a(I4
I1
tp405
a(I1
I1
tp406
a(I2
I1
tp407
atRp408
ag5
((lp409
(I4
I1
tp410
a(I1
I3
tp411
a(I3
I1
tp412
atRp413
ag5
((lp414
(I5
I1
tp415
a(I6
I4
tp416
atRp417
ag5
((lp418
(I5
I1
tp419
a(I3
I2
tp420
a(I6
I1
tp421
a(I2
I1
tp422
atRp423
ag5
((lp424
(I5
I1
tp425
a(I3
I3
tp426
a(I2
I1
tp427
atRp428
ag5
((lp429
(I6
I2
tp430
a(I4
I1
tp431
a(I1
I1
tp432
a(I2
I1
tp433
atRp434
ag5
((lp435
(I5
I4
tp436
a(I1
I1
tp437
atRp438
ag5
((lp439
(I5
I1
tp440
a(I1
I4
tp441
atRp442
ag5
((lp443
(I6
I4
tp444
a(I3
I1
tp445
atRp446
ag5
((lp447
(I5
I5
tp448
atRp449
ag5
((lp450
(I6
I2
tp451
a(I3
I1
tp452
a(I5
I2
tp453
atRp454
ag5
((lp455
(I6
I3
tp456
a(I4
I1
tp457
a(I1
I1
tp458
atRp459
ag5
((lp460
(I6
I2
tp461
a(I4
I3
tp462
atRp463
ag5
((lp464
(I1
I1
tp465
a(I2
I1
tp466
a(I5
I3
tp467
atRp468
ag5
((lp469
(I3
I1
tp470
a(I2
I4
tp471
atRp472
ag5
((lp473
(I4
I2
tp474
a(I3
I1
tp475
a(I5
I2
tp476
atRp477
ag5
((lp478
(I4
I4
tp479
a(I1
I1
tp480
atRp481
ag5
((lp482
(I6
I3
tp483
a(I5
I2
tp484
atRp485
ag5
((lp486
(I6
I3
tp487
a(I5
I1
tp488
a(I1
I1
tp489
atRp490
ag5
((lp491
(I5
I1
tp492
a(I4
I3
tp493
a(I2
I1
tp494
atRp495
ag5
((lp496
(I5
I2
tp497
a(I2
I3
tp498
atRp499
ag5
((lp500
(I4
I1
tp501
a(I3
I1
tp502
a(I2
I3
tp503
atRp504
ag5
((lp505
(I6
I1
tp506
a(I3
I1
tp507
a(I2
I3
tp508
atRp509
ag5
((lp510
(I5
I1
tp511
a(I1
I1
tp512
a(I3
I3
tp513
atRp514
ag5
((lp515
(I3
I2
tp516
a(I4
I1
tp517
a(I6
I1
tp518
a(I2
I1
tp519
atRp520
ag5
((lp521
(I3
I4
tp522
a(I2
I1
tp523
atRp524
ag5
((lp525
(I6
I2
tp526
a(I5
I1
tp527
a(I3
I1
tp528
a(I4
I1
tp529
atRp530
ag5
((lp531
(I1
I2
tp532
a(I5
I1
tp533
a(I6
I1
tp534
a(I4
I1
tp535
atRp536
ag5
((lp537
(I1
I2
tp538
a(I3
I2
tp539
a(I6
I1
tp540
atRp541
ag5
((lp542
(I6
I1
tp543
a(I5
I2
tp544
a(I1
I1
tp545
a(I2
I1
tp546
atRp547
ag5
((lp548
(I6
I1
tp549
a(I1
I4
tp550
atRp551
ag5
((lp552
(I4
I2
tp553
a(I6
I1
tp554
a(I5
I2
tp555
atRp556
ag5
((lp557
(I1
I3
tp558
a(I4
I1
tp559
a(I2
I1
tp560
atRp561
ag5
((lp562
(I3
I2
tp563
a(I1
I3
tp564
atRp565
ag5
((lp566
(I6
I1
tp567
a(I2
I4
tp568
atRp569
ag5
((lp570
(I4
I2
tp571
a(I3
I2
tp572
a(I2
I1
tp573
atRp574
ag5
((lp575
(I3
I1
tp576
a(I4
I1
tp577
a(I1
I1
tp578
a(I2
I2
tp579
atRp580
ag5
((lp581
(I6
I1
tp582
a(I3
I2
tp583
a(I4
I1
tp584
a(I1
I1
tp585
atRp586
ag5
((lp587
(I6
I2
tp588
a(I4
I1
tp589
a(I2
I2
tp590
atRp591
ag5
((lp592
(I3
I2
tp593
a(I4
I1
tp594
a(I2
I2
tp595
atRp596
ag5
((lp597
(I5
I4
tp598
a(I3
I1
tp599
atRp600
ag5
((lp601
(I3
I2
tp602
a(I6
I2
tp603
a(I4
I1
tp604
atRp605
ag5
((lp606
(I6
I1
tp607
a(I4
I1
tp608
a(I1
I1
tp609
a(I2
I2
tp610
atRp611
ag5
((lp612
(I1
I2
tp613
a(I5
I1
tp614
a(I3
I1
tp615
a(I4
I1
tp616
atRp617
ag5
((lp618
(I6
I3
tp619
a(I1
I1
tp620
a(I2
I1
tp621
atRp622
ag5
((lp623
(I5
I1
tp624
a(I3
I1
tp625
a(I2
I3
tp626
atRp627
ag5
((lp628
(I6
I1
tp629
a(I3
I1
tp630
a(I5
I3
tp631
atRp632
ag5
((lp633
(I1
I2
tp634
a(I3
I1
tp635
a(I6
I2
tp636
atRp637
ag5
((lp638
(I1
I2
tp639
a(I3
I1
tp640
a(I2
I2
tp641
atRp642
ag5
((lp643
(I2
I1
tp644
a(I1
I4
tp645
atRp646
ag5
((lp647
(I4
I1
tp648
a(I6
I1
tp649
a(I2
I3
tp650
atRp651
ag5
((lp652
(I3
I4
tp653
a(I1
I1
tp654
atRp655
ag5
((lp656
(I5
I1
tp657
a(I6
I1
tp658
a(I1
I3
tp659
atRp660
ag5
((lp661
(I1
I2
tp662
a(I6
I1
tp663
a(I5
I2
tp664
atRp665
ag5
((lp666
(I5
I1
tp667
a(I2
I3
tp668
a(I1
I1
tp669
atRp670
ag5
((lp671
(I5
I1
tp672
a(I1
I3
tp673
a(I4
I1
tp674
atRp675
ag5
((lp676
(I6
I3
tp677
a(I3
I1
tp678
a(I4
I1
tp679
atRp680
ag5
((lp681
(I6
I2
tp682
a(I5
I2
tp683
a(I1
I1
tp684
atRp685
ag5
((lp686
(I5
I1
tp687
a(I3
I2
tp688
a(I4
I1
tp689
a(I6
I1
tp690
atRp691
ag5
((lp692
(I3
I1
tp693
a(I5
I2
tp694
a(I2
I2
tp695
atRp696
ag5
((lp697
(I1
I2
tp698
a(I6
I2
tp699
a(I4
I1
tp700
atRp701
ag5
((lp702
(I1
I2
tp703
a(I3
I3
tp704
atRp705
ag5
((lp706
(I1
I2
tp707
a(I4
I2
tp708
a(I2
I1
tp709
atRp710
ag5
((lp711
(I6
I1
tp712
a(I3
I4
tp713
atRp714
ag5
((lp715
(I1
I2
tp716
a(I5
I1
tp717
a(I4
I1
tp718
a(I2
I1
tp719
atRp720
ag5
((lp721
(I1
I2
tp722
a(I6
I2
tp723
a(I2
I1
tp724
atRp725
ag5
((lp726
(I6
I3
tp727
a(I5
I1
tp728
a(I3
I1
tp729
atRp730
ag5
((lp731
(I5
I1
tp732
a(I6
I1
tp733
a(I4
I3
tp734
atRp735
ag5
((lp736
(I4
I2
tp737
a(I5
I2
tp738
a(I1
I1
tp739
atRp740
ag5
((lp741
(I6
I2
tp742
a(I5
I3
tp743
atRp744
ag5
((lp745
(I4
I1
tp746
a(I3
I3
tp747
a(I2
I1
tp748
atRp749
ag5
((lp750
(I6
I1
tp751
a(I1
I3
tp752
a(I4
I1
tp753
atRp754
ag5
((lp755
(I5
I1
tp756
a(I6
I1
tp757
a(I2
I3
tp758
atRp759
ag5
((lp760
(I4
I3
tp761
a(I2
I2
tp762
atRp763
ag5
((lp764
(I4
I1
tp765
a(I2
I3
tp766
a(I5
I1
tp767
atRp768
ag5
((lp769
(I6
I2
tp770
a(I5
I1
tp771
a(I3
I1
tp772
a(I2
I1
tp773
atRp774
ag5
((lp775
(I6
I1
tp776
a(I3
I1
tp777
a(I4
I1
tp778
a(I1
I1
tp779
a(I2
I1
tp780
atRp781
ag5
((lp782
(I4
I1
tp783
a(I2
I4
tp784
atRp785
ag5
((lp786
(I4
I2
tp787
a(I3
I2
tp788
a(I1
I1
tp789
atRp790
ag5
((lp791
(I5
I2
tp792
a(I3
I1
tp793
a(I4
I1
tp794
a(I2
I1
tp795
atRp796
ag5
((lp797
(I6
I1
tp798
a(I4
I1
tp799
a(I5
I3
tp800
atRp801
ag5
((lp802
(I1
I2
tp803
a(I6
I1
tp804
a(I3
I1
tp805
a(I4
I1
tp806
atRp807
ag5
((lp808
(I1
I2
tp809
a(I3
I2
tp810
a(I4
I1
tp811
atRp812
ag5
((lp813
(I5
I1
tp814
a(I3
I2
tp815
a(I2
I2
tp816
atRp817
ag5
((lp818
(I6
I3
tp819
a(I3
I2
tp820
atRp821
ag5
((lp822
(I6
I1
tp823
a(I5
I1
tp824
a(I3
I2
tp825
a(I1
I1
tp826
atRp827
ag5
((lp828
(I6
I4
tp829
a(I2
I1
tp830
atRp831
ag5
((lp832
(I5
I2
tp833
a(I4
I3
tp834
atRp835
ag5
((lp836
(I3
I2
tp837
a(I6
I2
tp838
a(I1
I1
tp839
atRp840
ag5
((lp841
(I5
I1
tp842
a(I3
I2
tp843
a(I4
I1
tp844
a(I1
I1
tp845
atRp846
ag5
((lp847
(I4
I2
tp848
a(I6
I2
tp849
a(I5
I1
tp850
atRp851
ag5
((lp852
(I5
I1
tp853
a(I1
I3
tp854
a(I2
I1
tp855
atRp856
ag5
((lp857
(I1
I2
tp858
a(I5
I2
tp859
a(I2
I1
tp860
atRp861
ag5
((lp862
(I5
I1
tp863
a(I4
I2
tp864
a(I2
I2
tp865
atRp866
ag5
((lp867
(I4
I2
tp868
a(I3
I1
tp869
a(I1
I1
tp870
a(I5
I1
tp871
atRp872
ag5
((lp873
(I1
I3
tp874
a(I3
I1
tp875
a(I2
I1
tp876
atRp877
ag5
((lp878
(I4
I2
tp879
a(I6
I1
tp880
a(I1
I1
tp881
a(I5
I1
tp882
atRp883
ag5
((lp884
(I6
I2
tp885
a(I3
I3
tp886
atRp887
ag5
((lp888
(I5
I1
tp889
a(I6
I2
tp890
a(I2
I2
tp891
atRp892
ag5
((lp893
(I4
I2
tp894
a(I5
I2
tp895
a(I2
I1
tp896
atRp897
ag5
((lp898
(I6
I2
tp899
a(I2
I3
tp900
atRp901
ag5
((lp902
(I6
I3
tp903
a(I4
I2
tp904
atRp905
ag5
((lp906
(I5
I1
tp907
a(I3
I1
tp908
a(I4
I3
tp909
atRp910
ag5
((lp911
(I5
I1
tp912
a(I3
I2
tp913
a(I6
I2
tp914
atRp915
ag5
((lp916
(I1
I2
tp917
a(I4
I2
tp918
a(I6
I1
tp919
atRp920
ag5
((lp921
(I6
I1
tp922
a(I1
I1
tp923
a(I5
I3
tp924
atRp925
ag5
((lp926
(I5
I1
tp927
a(I3
I2
tp928
a(I4
I1
tp929
a(I2
I1
tp930
atRp931
ag5
((lp932
(I4
I2
tp933
a(I3
I1
tp934
a(I1
I1
tp935
a(I2
I1
tp936
atRp937
ag5
((lp938
(I6
I4
tp939
a(I1
I1
tp940
atRp941
ag5
((lp942
(I6
I1
tp943
a(I3
I2
tp944
a(I1
I1
tp945
a(I2
I1
tp946
atRp947
ag5
((lp948
(I1
I5
tp949
atRp950
ag5
((lp951
(I6
I1
tp952
a(I4
I3
tp953
a(I2
I1
tp954
atRp955
ag5
((lp956
(I3
I2
tp957
a(I5
I2
tp958
a(I1
I1
tp959
atRp960
ag5
((lp961
(I6
I1
tp962
a(I3
I1
tp963
a(I5
I2
tp964
a(I1
I1
tp965
atRp966
ag5
((lp967
(I4
I1
tp968
a(I1
I1
tp969
a(I5
I3
tp970
atRp971
ag5
((lp972
(I4
I5
tp973
atRp974
ag5
((lp975
(I1
I2
tp976
a(I5
I1
tp977
a(I3
I1
tp978
a(I2
I1
tp979
atRp980
ag5
((lp981
(I5
I2
tp982
a(I3
I1
tp983
a(I4
I1
tp984
a(I1
I1
tp985
atRp986
ag5
((lp987
(I6
I1
tp988
a(I4
I4
tp989
atRp990
ag5
((lp991
(I6
I1
tp992
a(I2
I1
tp993
a(I5
I3
tp994
atRp995
ag5
((lp996
(I5
I1
tp997
a(I4
I4
tp998
atRp999
ag5
((lp1000
(I6
I1
tp1001
a(I5
I2
tp1002
a(I2
I2
tp1003
atRp1004
ag5
((lp1005
(I5
I2
tp1006
a(I3
I2
tp1007
a(I4
I1
tp1008
atRp1009
ag5
((lp1010
(I1
I2
tp1011
a(I6
I1
tp1012
a(I3
I1
tp1013
a(I2
I1
tp1014
atRp1015
ag5
((lp1016
(I1
I2
tp1017
a(I3
I2
tp1018
a(I2
I1
tp1019
atRp1020
ag5
((lp1021
(I4
I1
tp1022
a(I2
I1
tp1023
a(I5
I3
tp1024
atRp1025
ag5
((lp1026
(I4
I1
tp1027
a(I3
I4
tp1028
atRp1029
ag5
((lp1030
(I1
I2
tp1031
a(I5
I1
tp1032
a(I6
I1
tp1033
a(I2
I1
tp1034
atRp1035
ag5
((lp1036
(I6
I4
tp1037
a(I4
I1
tp1038
atRp1039
ag5
((lp1040
(I4
I2
tp1041
a(I6
I1
tp1042
a(I2
I1
tp1043
a(I5
I1
tp1044
atRp1045
ag5
((lp1046
(I5
I1
tp1047
a(I1
I3
tp1048
a(I3
I1
tp1049
atRp1050
ag5
((lp1051
(I5
I1
tp1052
a(I3
I2
tp1053
a(I1
I1
tp1054
a(I2
I1
tp1055
atRp1056
ag5
((lp1057
(I5
I1
tp1058
a(I6
I2
tp1059
a(I1
I1
tp1060
a(I2
I1
tp1061
atRp1062
ag5
((lp1063
(I4
I4
tp1064
a(I2
I1
tp1065
atRp1066
ag5
((lp1067
(I1
I2
tp1068
a(I4
I2
tp1069
a(I5
I1
tp1070
atRp1071
ag5
((lp1072
(I6
I1
tp1073
a(I3
I1
tp1074
a(I4
I3
tp1075
atRp1076
ag5
((lp1077
(I3
I1
tp1078
a(I4
I4
tp1079
atRp1080
ag5
((lp1081
(I4
I2
tp1082
a(I6
I1
tp1083
a(I3
I1
tp1084
a(I5
I1
tp1085
atRp1086
ag5
((lp1087
(I3
I5
tp1088
atRp1089
ag5
((lp1090
(I5
I2
tp1091
a(I4
I1
tp1092
a(I1
I1
tp1093
a(I2
I1
tp1094
atRp1095
ag5
((lp1096
(I4
I2
tp1097
a(I3
I3
tp1098
atRp1099
ag5
((lp1100
(I5
I1
tp1101
a(I6
I1
tp1102
a(I3
I1
tp1103
a(I2
I2
tp1104
atRp1105
ag5
((lp1106
(I4
I2
tp1107
a(I6
I1
tp1108
a(I2
I2
tp1109
atRp1110
ag5
((lp1111
(I5
I1
tp1112
a(I3
I1
tp1113
a(I1
I1
tp1114
a(I2
I2
tp1115
atRp1116
ag5
((lp1117
(I6
I2
tp1118
a(I3
I1
tp1119
a(I2
I2
tp1120
atRp1121
ag5
((lp1122
(I5
I2
tp1123
a(I6
I1
tp1124
a(I3
I1
tp1125
a(I4
I1
tp1126
atRp1127
ag5
((lp1128
(I5
I1
tp1129
a(I3
I1
tp1130
a(I4
I1
tp1131
a(I2
I2
tp1132
atRp1133
ag5
((lp1134
(I6
I2
tp1135
a(I5
I1
tp1136
a(I3
I1
tp1137
a(I1
I1
tp1138
atRp1139
ag5
((lp1140
(I4
I2
tp1141
a(I6
I1
tp1142
a(I3
I1
tp1143
a(I1
I1
tp1144
atRp1145
ag5
((lp1146
(I1
I2
tp1147
a(I6
I3
tp1148
atRp1149
ag5
((lp1150
(I3
I2
tp1151
a(I6
I1
tp1152
a(I2
I2
tp1153
atRp1154
ag5
((lp1155
(I3
I2
tp1156
a(I5
I2
tp1157
a(I6
I1
tp1158
atRp1159
ag5
((lp1160
(I6
I2
tp1161
a(I4
I2
tp1162
a(I3
I1
tp1163
atRp1164
ag5
((lp1165
(I4
I2
tp1166
a(I3
I2
tp1167
a(I5
I1
tp1168
atRp1169
ag5
((lp1170
(I5
I2
tp1171
a(I3
I3
tp1172
atRp1173
ag5
((lp1174
(I3
I1
tp1175
a(I5
I2
tp1176
a(I1
I1
tp1177
a(I2
I1
tp1178
atRp1179
ag5
((lp1180
(I6
I3
tp1181
a(I3
I1
tp1182
a(I2
I1
tp1183
atRp1184
ag5
((lp1185
(I1
I2
tp1186
a(I5
I1
tp1187
a(I6
I2
tp1188
atRp1189
ag5
((lp1190
(I6
I1
tp1191
a(I3
I3
tp1192
a(I2
I1
tp1193
atRp1194
ag5
((lp1195
(I3
I1
tp1196
a(I4
I1
tp1197
a(I5
I3
tp1198
atRp1199
ag5
((lp1200
(I5
I1
tp1201
a(I3
I1
tp1202
a(I4
I1
tp1203
a(I1
I1
tp1204
a(I2
I1
tp1205
atRp1206
ag5
((lp1207
(I5
I1
tp1208
a(I6
I2
tp1209
a(I4
I1
tp1210
a(I2
I1
tp1211
atRp1212
ag5
((lp1213
(I5
I1
tp1214
a(I6
I1
tp1215
a(I3
I1
tp1216
a(I1
I1
tp1217
a(I2
I1
tp1218
atRp1219
ag5
((lp1220
(I1
I1
tp1221
a(I2
I1
tp1222
a(I3
I3
tp1223
atRp1224
ag5
((lp1225
(I5
I4
tp1226
a(I6
I1
tp1227
atRp1228
ag5
((lp1229
(I4
I2
tp1230
a(I5
I3
tp1231
atRp1232
ag5
((lp1233
(I1
I2
tp1234
a(I6
I1
tp1235
a(I4
I1
tp1236
a(I2
I1
tp1237
atRp1238
ag5
((lp1239
(I1
I3
tp1240
a(I5
I2
tp1241
atRp1242
ag5
((lp1243
(I5
I2
tp1244
a(I1
I1
tp1245
a(I2
I2
tp1246
atRp1247
ag5
((lp1248
(I5
I1
tp1249
a(I3
I4
tp1250
atRp1251
ag5
((lp1252
(I5
I2
tp1253
a(I6
I2
tp1254
a(I4
I1
tp1255
atRp1256
ag5
((lp1257
(I6
I1
tp1258
a(I1
I3
tp1259
a(I2
I1
tp1260
atRp1261
ag5
((lp1262
(I6
I1
tp1263
a(I1
I1
tp1264
a(I4
I3
tp1265
atRp1266
atRp1267
(dp1268
g9
F0.0001286008230452675
sg591
F0.0038580246913580232
sg19
F0.0025720164609053498
sg1242
F0.0012860082304526753
sg23
F0.0012860082304526753
sg29
F0.0077160493827160559
sg34
F0.0025720164609053498
sg41
F0.01543209876543207
sg45
F0.0012860082304526753
sg51
F0.0077160493827160559
sg56
F0.0038580246913580232
sg61
F0.0038580246913580232
sg65
F0.0012860082304526753
sg70
F0.0038580246913580232
sg75
F0.0038580246913580232
sg402
F0.0038580246913580232
sg84
F0.00064300411522633756
sg90
F0.0077160493827160559
sg95
F0.0038580246913580232
sg80
F0.0038580246913580232
sg100
F0.0025720164609053498
sg106
F0.0077160493827160559
sg110
F0.0012860082304526753
sg691
F0.0077160493827160559
sg120
F0.0038580246913580232
sg125
F0.0025720164609053498
sg130
F0.0025720164609053498
sg135
F0.0025720164609053498
sg141
F0.0077160493827160559
sg617
F0.0077160493827160559
sg151
F0.0025720164609053498
sg156
F0.0038580246913580232
sg161
F0.0038580246913580232
sg167
F0.0077160493827160559
sg417
F0.00064300411522633756
sg176
F0.00064300411522633756
sg181
F0.0038580246913580232
sg187
F0.0077160493827160559
sg191
F0.0012860082304526753
sg197
F0.0077160493827160559
sg207
F0.0025720164609053498
sg428
F0.0025720164609053498
sg1095
F0.0077160493827160559
sg222
F0.0012860082304526753
sg227
F0.0025720164609053498
sg231
F0.00064300411522633756
sg236
F0.0038580246913580232
sg242
F0.0077160493827160559
sg386
F0.0012860082304526753
sg254
F0.0077160493827160559
sg877
F0.0025720164609053498
sg259
F0.0038580246913580232
sg264
F0.0025720164609053498
sg271
F0.01543209876543207
sg861
F0.0038580246913580232
sg284
F0.0025720164609053498
sg289
F0.0038580246913580232
sg295
F0.0077160493827160559
sg299
F0.0012860082304526753
sg310
F0.0077160493827160559
sg315
F0.0038580246913580232
sg321
F0.0077160493827160559
sg325
F0.0012860082304526753
sg331
F0.0077160493827160559
sg335
F0.0012860082304526753
sg1121
F0.0038580246913580232
sg342
F0.0001286008230452675
sg115
F0.0038580246913580232
sg354
F0.01543209876543207
sg364
F0.0077160493827160559
sg369
F0.0025720164609053498
sg373
F0.00064300411522633756
sg378
F0.0038580246913580232
sg382
F0.0012860082304526753
sg248
F0.0077160493827160559
sg392
F0.0077160493827160559
sg1149
F0.0012860082304526753
sg397
F0.0025720164609053498
sg434
F0.0077160493827160559
sg408
F0.0077160493827160559
sg413
F0.0025720164609053498
sg172
F0.0025720164609053498
sg423
F0.0077160493827160559
sg212
F0.0025720164609053498
sg218
F0.0077160493827160559
sg438
F0.00064300411522633756
sg670
F0.0025720164609053498
sg449
F0.0001286008230452675
sg454
F0.0038580246913580232
sg459
F0.0025720164609053498
sg463
F0.0012860082304526753
sg468
F0.0025720164609053498
sg1139
F0.0077160493827160559
sg477
F0.0038580246913580232
sg481
F0.00064300411522633756
sg675
F0.0025720164609053498
sg910
F0.0025720164609053498
sg490
F0.0025720164609053498
sg495
F0.0025720164609053498
sg499
F0.0012860082304526753
sg504
F0.0025720164609053498
sg509
F0.0025720164609053498
sg514
F0.0025720164609053498
sg520
F0.0077160493827160559
sg524
F0.00064300411522633756
sg536
F0.0077160493827160559
sg541
F0.0038580246913580232
sg547
F0.0077160493827160559
sg551
F0.00064300411522633756
sg556
F0.0038580246913580232
sg561
F0.0025720164609053498
sg565
F0.0012860082304526753
sg569
F0.00064300411522633756
sg574
F0.0038580246913580232
sg580
F0.0077160493827160559
sg586
F0.0077160493827160559
sg14
F0.0025720164609053498
sg596
F0.0038580246913580232
sg705
F0.0012860082304526753
sg605
F0.0038580246913580232
sg611
F0.0077160493827160559
sg146
F0.0025720164609053498
sg622
F0.0025720164609053498
sg941
F0.00064300411522633756
sg632
F0.0025720164609053498
sg1179
F0.0077160493827160559
sg642
F0.0038580246913580232
sg1029
F0.00064300411522633756
sg651
F0.0025720164609053498
sg710
F0.0038580246913580232
sg660
F0.0025720164609053498
sg665
F0.0038580246913580232
sg446
F0.00064300411522633756
sg485
F0.0012860082304526753
sg680
F0.0025720164609053498
sg685
F0.0038580246913580232
sg901
F0.0012860082304526753
sg696
F0.0038580246913580232
sg1133
F0.0077160493827160559
sg600
F0.00064300411522633756
sg1116
F0.0077160493827160559
sg655
F0.00064300411522633756
sg714
F0.00064300411522633756
sg720
F0.0077160493827160559
sg725
F0.0038580246913580232
sg730
F0.0025720164609053498
sg735
F0.0025720164609053498
sg740
F0.0038580246913580232
sg744
F0.0012860082304526753
sg749
F0.0025720164609053498
sg754
F0.0025720164609053498
sg759
F0.0025720164609053498
sg821
F0.0012860082304526753
sg1247
F0.0038580246913580232
sg960
F0.0038580246913580232
sg768
F0.0025720164609053498
sg774
F0.0077160493827160559
sg781
F0.01543209876543207
sg785
F0.00064300411522633756
sg796
F0.0077160493827160559
sg801
F0.0025720164609053498
sg807
F0.0077160493827160559
sg812
F0.0038580246913580232
sg817
F0.0038580246913580232
sg358
F0.00064300411522633756
sg827
F0.0077160493827160559
sg831
F0.00064300411522633756
sg840
F0.0038580246913580232
sg846
F0.0077160493827160559
sg851
F0.0038580246913580232
sg856
F0.0025720164609053498
sg275
F0.00064300411522633756
sg866
F0.0038580246913580232
sg872
F0.0077160493827160559
sg347
F0.0025720164609053498
sg883
F0.0077160493827160559
sg887
F0.0012860082304526753
sg897
F0.0038580246913580232
sg442
F0.00064300411522633756
sg905
F0.0012860082304526753
sg835
F0.0012860082304526753
sg915
F0.0038580246913580232
sg920
F0.0038580246913580232
sg925
F0.0025720164609053498
sg931
F0.0077160493827160559
sg937
F0.0077160493827160559
sg627
F0.0025720164609053498
sg947
F0.0077160493827160559
sg950
F0.0001286008230452675
sg955
F0.0025720164609053498
sg763
F0.0012860082304526753
sg966
F0.0077160493827160559
sg971
F0.0025720164609053498
sg974
F0.0001286008230452675
sg980
F0.0077160493827160559
sg986
F0.0077160493827160559
sg990
F0.00064300411522633756
sg1224
F0.0025720164609053498
sg995
F0.0025720164609053498
sg999
F0.00064300411522633756
sg1004
F0.0038580246913580232
sg1009
F0.0038580246913580232
sg1015
F0.0077160493827160559
sg1020
F0.0038580246913580232
sg1025
F0.0025720164609053498
sg1080
F0.00064300411522633756
sg1035
F0.0077160493827160559
sg1039
F0.00064300411522633756
sg1045
F0.0077160493827160559
sg1050
F0.0025720164609053498
sg1056
F0.0077160493827160559
sg1062
F0.0077160493827160559
sg1066
F0.00064300411522633756
sg1071
F0.0038580246913580232
sg1076
F0.0025720164609053498
sg646
F0.00064300411522633756
sg1086
F0.0077160493827160559
sg1089
F0.0001286008230452675
sg701
F0.0038580246913580232
sg1099
F0.0012860082304526753
sg1105
F0.0077160493827160559
sg1110
F0.0038580246913580232
sg530
F0.0077160493827160559
sg339
F0.0012860082304526753
sg1127
F0.0077160493827160559
sg304
F0.0038580246913580232
sg472
F0.00064300411522633756
sg1145
F0.0077160493827160559
sg790
F0.0038580246913580232
sg1154
F0.0038580246913580232
sg1159
F0.0038580246913580232
sg1164
F0.0038580246913580232
sg1169
F0.0038580246913580232
sg1173
F0.0012860082304526753
sg637
F0.0038580246913580232
sg1184
F0.0025720164609053498
sg1189
F0.0038580246913580232
sg1194
F0.0025720164609053498
sg1199
F0.0025720164609053498
sg1206
F0.01543209876543207
sg1212
F0.0077160493827160559
sg1219
F0.01543209876543207
sg892
F0.0038580246913580232
sg1228
F0.00064300411522633756
sg1232
F0.0012860082304526753
sg1238
F0.0077160493827160559
sg202
F0.0025720164609053498
sg279
F0.0012860082304526753
sg1251
F0.00064300411522633756
sg1256
F0.0038580246913580232
sg1261
F0.0025720164609053498
sg1266
F0.0025720164609053498
sstRp1269
(dp1270
S'Weights'
p1271
(dp1272
g1267
F1
ssS'SampleSpace'
p1273
g1267
sb.